; Function Attrs: mustprogress nofree norecurse nosync nounwind memory(readwrite, inaccessiblemem: none) uwtable
define hidden void @_ZN2cv8ximgproc15EdgeDrawingImpl7AperB_TEPPdS3_S3_iiii(ptr noundef readonly captures(none) %0, ptr noundef readonly captures(none) %1, ptr noundef readonly captures(none) %2, i32 noundef %3, i32 noundef %4, i32 noundef %5, i32 noundef %6) local_unnamed_addr #13 align 2 {
  %.not33 = icmp slt i32 %4, 1
  %.not2529 = icmp slt i32 %6, 1
  %or.cond = or i1 %.not33, %.not2529
  br i1 %or.cond, label %._crit_edge35, label %.preheader.lr.ph.split

.preheader.lr.ph.split:                           ; preds = %7
  %.not2627 = icmp slt i32 %3, 1
  %8 = add nuw i32 %4, 1
  %wide.trip.count58 = zext i32 %8 to i64
  br i1 %.not2627, label %.preheader.us36.preheader, label %.preheader.preheader

.preheader.preheader:                             ; preds = %.preheader.lr.ph.split
  %9 = add nuw i32 %3, 1
  %10 = add nuw i32 %6, 1
  %wide.trip.count45 = zext i32 %10 to i64
  %wide.trip.count = zext i32 %9 to i64
  br label %.preheader

.preheader.us36.preheader:                        ; preds = %.preheader.lr.ph.split
  %11 = zext nneg i32 %6 to i64
  %12 = shl nuw nsw i64 %11, 3
  br label %.preheader.us36

.preheader.us36:                                  ; preds = %.preheader.us36.preheader, %.preheader.us36
  %indvars.iv55 = phi i64 [ 1, %.preheader.us36.preheader ], [ %indvars.iv.next56, %.preheader.us36 ]
  %13 = getelementptr inbounds nuw ptr, ptr %2, i64 %indvars.iv55
  %14 = load ptr, ptr %13, align 8, !tbaa !421
  %scevgep = getelementptr nuw i8, ptr %14, i64 8
  tail call void @llvm.memset.p0.i64(ptr nonnull align 8 %scevgep, i8 0, i64 %12, i1 false), !tbaa !37
  %indvars.iv.next56 = add nuw nsw i64 %indvars.iv55, 1
  %exitcond59.not = icmp eq i64 %indvars.iv.next56, %wide.trip.count58
  br i1 %exitcond59.not, label %._crit_edge35, label %.preheader.us36, !llvm.loop !428

.preheader:                                       ; preds = %.preheader.preheader, %._crit_edge32.split
  %indvars.iv47 = phi i64 [ 1, %.preheader.preheader ], [ %indvars.iv.next48, %._crit_edge32.split ]
  %15 = getelementptr inbounds nuw ptr, ptr %2, i64 %indvars.iv47
  %16 = load ptr, ptr %15, align 8, !tbaa !421
  %17 = getelementptr inbounds nuw ptr, ptr %0, i64 %indvars.iv47
  %18 = load ptr, ptr %17, align 8, !tbaa !421
  br label %.lr.ph

.lr.ph:                                           ; preds = %.preheader, %._crit_edge
  %indvars.iv42 = phi i64 [ 1, %.preheader ], [ %indvars.iv.next43, %._crit_edge ]
  %19 = getelementptr inbounds nuw double, ptr %16, i64 %indvars.iv42
  store double 0.000000e+00, ptr %19, align 8, !tbaa !37
  %20 = getelementptr inbounds nuw ptr, ptr %1, i64 %indvars.iv42
  %21 = load ptr, ptr %20, align 8, !tbaa !421
  br label %22

22:                                               ; preds = %.lr.ph, %22
  %indvars.iv = phi i64 [ 1, %.lr.ph ], [ %indvars.iv.next, %22 ]
  %23 = phi double [ 0.000000e+00, %.lr.ph ], [ %28, %22 ]
  %24 = getelementptr inbounds nuw double, ptr %18, i64 %indvars.iv
  %25 = load double, ptr %24, align 8, !tbaa !37
  %26 = getelementptr inbounds nuw double, ptr %21, i64 %indvars.iv
  %27 = load double, ptr %26, align 8, !tbaa !37
  %28 = tail call double @llvm.fmuladd.f64(double %25, double %27, double %23)
  store double %28, ptr %19, align 8, !tbaa !37
  %indvars.iv.next = add nuw nsw i64 %indvars.iv, 1
  %exitcond.not = icmp eq i64 %indvars.iv.next, %wide.trip.count
  br i1 %exitcond.not, label %._crit_edge, label %22, !llvm.loop !426

._crit_edge:                                      ; preds = %22
  %indvars.iv.next43 = add nuw nsw i64 %indvars.iv42, 1
  %exitcond46.not = icmp eq i64 %indvars.iv.next43, %wide.trip.count45
  br i1 %exitcond46.not, label %._crit_edge32.split, label %.lr.ph, !llvm.loop !427

._crit_edge32.split:                              ; preds = %._crit_edge
  %indvars.iv.next48 = add nuw nsw i64 %indvars.iv47, 1
  %exitcond51.not = icmp eq i64 %indvars.iv.next48, %wide.trip.count58
  br i1 %exitcond51.not, label %._crit_edge35, label %.preheader, !llvm.loop !428

._crit_edge35:                                    ; preds = %._crit_edge32.split, %.preheader.us36, %7
  ret void
}